; ModuleID = '38/881.c'
source_filename = "38/881.c"
target datalayout = "e-m:e-p270:32:32-p271:32:32-p272:64:64-i64:64-f80:128-n8:16:32:64-S128"
target triple = "x86_64-pc-linux-gnu"

@.str = private unnamed_addr constant [3 x i8] c"%d\00", align 1
@.str.1 = private unnamed_addr constant [4 x i8] c"%lf\00", align 1
@.str.2 = private unnamed_addr constant [7 x i8] c"%.5lf\0A\00", align 1

; Function Attrs: noinline nounwind uwtable
define dso_local void @main() #0 {
  %1 = alloca i32, align 4
  %2 = alloca i32, align 4
  %3 = alloca i32, align 4
  %4 = alloca [1001 x double], align 16
  %5 = alloca double, align 8
  %6 = alloca [1001 x double], align 16
  %7 = alloca double, align 8
  %8 = call i32 (i8*, ...) @__isoc99_scanf(i8* getelementptr inbounds ([3 x i8], [3 x i8]* @.str, i64 0, i64 0), i32* %1)
  br label %9

9:                                                ; preds = %54, %0
  %10 = load i32, i32* %1, align 4
  %11 = icmp ne i32 %10, 0
  br i1 %11, label %12, label %62

12:                                               ; preds = %9
  %13 = call i32 (i8*, ...) @__isoc99_scanf(i8* getelementptr inbounds ([3 x i8], [3 x i8]* @.str, i64 0, i64 0), i32* %2)
  store i32 0, i32* %3, align 4
  br label %14

14:                                               ; preds = %23, %12
  %15 = load i32, i32* %3, align 4
  %16 = load i32, i32* %2, align 4
  %17 = icmp slt i32 %15, %16
  br i1 %17, label %18, label %26

18:                                               ; preds = %14
  %19 = load i32, i32* %3, align 4
  %20 = sext i32 %19 to i64
  %21 = getelementptr inbounds [1001 x double], [1001 x double]* %4, i64 0, i64 %20
  %22 = call i32 (i8*, ...) @__isoc99_scanf(i8* getelementptr inbounds ([4 x i8], [4 x i8]* @.str.1, i64 0, i64 0), double* %21)
  br label %23

23:                                               ; preds = %18
  %24 = load i32, i32* %3, align 4
  %25 = add nsw i32 %24, 1
  store i32 %25, i32* %3, align 4
  br label %14

26:                                               ; preds = %14
  %27 = getelementptr inbounds [1001 x double], [1001 x double]* %4, i64 0, i64 0
  %28 = load i32, i32* %2, align 4
  %29 = call double @aver(double* %27, i32 %28)
  store double %29, double* %5, align 8
  store i32 0, i32* %3, align 4
  br label %30

30:                                               ; preds = %51, %26
  %31 = load i32, i32* %3, align 4
  %32 = load i32, i32* %2, align 4
  %33 = icmp slt i32 %31, %32
  br i1 %33, label %34, label %54

34:                                               ; preds = %30
  %35 = load i32, i32* %3, align 4
  %36 = sext i32 %35 to i64
  %37 = getelementptr inbounds [1001 x double], [1001 x double]* %4, i64 0, i64 %36
  %38 = load double, double* %37, align 8
  %39 = load double, double* %5, align 8
  %40 = fsub double %38, %39
  %41 = load i32, i32* %3, align 4
  %42 = sext i32 %41 to i64
  %43 = getelementptr inbounds [1001 x double], [1001 x double]* %4, i64 0, i64 %42
  %44 = load double, double* %43, align 8
  %45 = load double, double* %5, align 8
  %46 = fsub double %44, %45
  %47 = fmul double %40, %46
  %48 = load i32, i32* %3, align 4
  %49 = sext i32 %48 to i64
  %50 = getelementptr inbounds [1001 x double], [1001 x double]* %6, i64 0, i64 %49
  store double %47, double* %50, align 8
  br label %51

51:                                               ; preds = %34
  %52 = load i32, i32* %3, align 4
  %53 = add nsw i32 %52, 1
  store i32 %53, i32* %3, align 4
  br label %30

54:                                               ; preds = %30
  %55 = getelementptr inbounds [1001 x double], [1001 x double]* %6, i64 0, i64 0
  %56 = load i32, i32* %2, align 4
  %57 = call double @aver(double* %55, i32 %56)
  %58 = call double @sqrt(double %57) #3
  %59 = call i32 (i8*, ...) @printf(i8* getelementptr inbounds ([7 x i8], [7 x i8]* @.str.2, i64 0, i64 0), double %58)
  %60 = load i32, i32* %1, align 4
  %61 = add nsw i32 %60, -1
  store i32 %61, i32* %1, align 4
  br label %9

62:                                               ; preds = %9
  ret void
}

declare dso_local i32 @__isoc99_scanf(i8*, ...) #1

; Function Attrs: noinline nounwind uwtable
define dso_local double @aver(double* %0, i32 %1) #0 {
  %3 = alloca double*, align 8
  %4 = alloca i32, align 4
  %5 = alloca double, align 8
  %6 = alloca i32, align 4
  store double* %0, double** %3, align 8
  store i32 %1, i32* %4, align 4
  store double 0.000000e+00, double* %5, align 8
  store i32 0, i32* %6, align 4
  br label %7

7:                                                ; preds = %19, %2
  %8 = load i32, i32* %6, align 4
  %9 = load i32, i32* %4, align 4
  %10 = icmp slt i32 %8, %9
  br i1 %10, label %11, label %22

11:                                               ; preds = %7
  %12 = load double*, double** %3, align 8
  %13 = load i32, i32* %6, align 4
  %14 = sext i32 %13 to i64
  %15 = getelementptr inbounds double, double* %12, i64 %14
  %16 = load double, double* %15, align 8
  %17 = load double, double* %5, align 8
  %18 = fadd double %17, %16
  store double %18, double* %5, align 8
  br label %19

19:                                               ; preds = %11
  %20 = load i32, i32* %6, align 4
  %21 = add nsw i32 %20, 1
  store i32 %21, i32* %6, align 4
  br label %7

22:                                               ; preds = %7
  %23 = load double, double* %5, align 8
  %24 = load i32, i32* %4, align 4
  %25 = sitofp i32 %24 to double
  %26 = fdiv double %23, %25
  ret double %26
}

declare dso_local i32 @printf(i8*, ...) #1

; Function Attrs: nounwind
declare dso_local double @sqrt(double) #2


!llvm.module.flags = !{!0}
!llvm.ident = !{!1}

!0 = !{i32 1, !"wchar_size", i32 4}
!1 = !{!"clang version 10.0.0-4ubuntu1 "}
